; Function Attrs: null_pointer_is_valid sspstrong uwtable
define internal fastcc ptr @start_dissecting(ptr noundef %0, ptr %.8.val, ptr noundef %1, ptr noundef readonly captures(none) %2) unnamed_addr #0 {
  tail call void @col_set_str(ptr noundef %.8.val, i32 noundef 35, ptr noundef nonnull @.str.648)
  %.not = icmp eq ptr %1, null
  br i1 %.not, label %11, label %4

4:                                                ; preds = %3
  %5 = load i32, ptr @proto_tango, align 4
  %6 = load i32, ptr %2, align 4
  %7 = tail call i32 @tvb_reported_length_remaining(ptr noundef %0, i32 noundef %6)
  %8 = tail call ptr @proto_tree_add_item(ptr noundef nonnull %1, i32 noundef %5, ptr noundef %0, i32 noundef %6, i32 noundef %7, i32 noundef 0)
  %9 = load i32, ptr @ett_tango, align 4
  %10 = tail call ptr @proto_item_add_subtree(ptr noundef %8, i32 noundef %9)
  br label %11

11:                                               ; preds = %4, %3
  %.0 = phi ptr [ %10, %4 ], [ null, %3 ]
  ret ptr %.0
}